target datalayout = "e-m:e-p270:32:32-p271:32:32-p272:64:64-i64:64-i128:128-f80:128-n8:16:32:64-S128"
target triple = "x86_64-pc-linux-gnu"

@hf_ecmp_file_status = internal global i32 0, align 4
@hf_ecmp_file_handle = internal global i32 0, align 4
@hf_ecmp_number_of_bytes_transferred = internal global i32 0, align 4
@hf_ecmp_crc = internal global i32 0, align 4

; Function Attrs: null_pointer_is_valid sspstrong uwtable
define internal void @file_close(i32 noundef %0, i1 noundef zeroext %1, ptr noundef %2, ptr noundef %3) #0 {
  %5 = alloca i32, align 4
  %6 = alloca i8, align 1
  %7 = alloca ptr, align 8
  %8 = alloca ptr, align 8
  store i32 %0, ptr %5, align 4
  %9 = zext i1 %1 to i8
  store i8 %9, ptr %6, align 1
  store ptr %2, ptr %7, align 8
  store ptr %3, ptr %8, align 8
  %10 = load i8, ptr %6, align 1, !range !6, !noundef !7
  %11 = trunc i8 %10 to i1
  br i1 %11, label %12, label %32

12:                                               ; preds = %4
  %13 = load ptr, ptr %8, align 8
  %14 = load i32, ptr @hf_ecmp_file_handle, align 4
  %15 = load ptr, ptr %7, align 8
  %16 = load i32, ptr %5, align 4
  %17 = call ptr @proto_tree_add_item(ptr noundef %13, i32 noundef %14, ptr noundef %15, i32 noundef %16, i32 noundef 2, i32 noundef 0)
  %18 = load i32, ptr %5, align 4
  %19 = add i32 %18, 2
  store i32 %19, ptr %5, align 4
  %20 = load ptr, ptr %8, align 8
  %21 = load i32, ptr @hf_ecmp_number_of_bytes_transferred, align 4
  %22 = load ptr, ptr %7, align 8
  %23 = load i32, ptr %5, align 4
  %24 = call ptr @proto_tree_add_item(ptr noundef %20, i32 noundef %21, ptr noundef %22, i32 noundef %23, i32 noundef 4, i32 noundef 0)
  %25 = load i32, ptr %5, align 4
  %26 = add i32 %25, 4
  store i32 %26, ptr %5, align 4
  %27 = load ptr, ptr %8, align 8
  %28 = load i32, ptr @hf_ecmp_crc, align 4
  %29 = load ptr, ptr %7, align 8
  %30 = load i32, ptr %5, align 4
  %31 = call ptr @proto_tree_add_item(ptr noundef %27, i32 noundef %28, ptr noundef %29, i32 noundef %30, i32 noundef 4, i32 noundef 0)
  br label %40

32:                                               ; preds = %4
  %33 = load ptr, ptr %8, align 8
  %34 = load i32, ptr @hf_ecmp_file_status, align 4
  %35 = load ptr, ptr %7, align 8
  %36 = load i32, ptr %5, align 4
  %37 = call ptr @proto_tree_add_item(ptr noundef %33, i32 noundef %34, ptr noundef %35, i32 noundef %36, i32 noundef 1, i32 noundef 0)
  %38 = load i32, ptr %5, align 4
  %39 = add i32 %38, 1
  store i32 %39, ptr %5, align 4
  br label %40

40:                                               ; preds = %32, %12
  ret void
}