; Function Attrs: null_pointer_is_valid sspstrong uwtable
define internal fastcc void @file_close(i32 noundef %0, i1 noundef zeroext %1, ptr noundef %2, ptr noundef %3) unnamed_addr #0 {
  br i1 %1, label %5, label %14

5:                                                ; preds = %4
  %6 = load i32, ptr @hf_ecmp_file_handle, align 4
  %7 = tail call ptr @proto_tree_add_item(ptr noundef %3, i32 noundef %6, ptr noundef %2, i32 noundef %0, i32 noundef 2, i32 noundef 0)
  %8 = add i32 %0, 2
  %9 = load i32, ptr @hf_ecmp_number_of_bytes_transferred, align 4
  %10 = tail call ptr @proto_tree_add_item(ptr noundef %3, i32 noundef %9, ptr noundef %2, i32 noundef %8, i32 noundef 4, i32 noundef 0)
  %11 = add i32 %0, 6
  %12 = load i32, ptr @hf_ecmp_crc, align 4
  %13 = tail call ptr @proto_tree_add_item(ptr noundef %3, i32 noundef %12, ptr noundef %2, i32 noundef %11, i32 noundef 4, i32 noundef 0)
  br label %17

14:                                               ; preds = %4
  %15 = load i32, ptr @hf_ecmp_file_status, align 4
  %16 = tail call ptr @proto_tree_add_item(ptr noundef %3, i32 noundef %15, ptr noundef %2, i32 noundef %0, i32 noundef 1, i32 noundef 0)
  br label %17

17:                                               ; preds = %14, %5
  ret void
}